target datalayout = "e-m:e-p270:32:32-p271:32:32-p272:64:64-i64:64-i128:128-f80:128-n8:16:32:64-S128"
target triple = "x86_64-pc-linux-gnu"

%struct.dcm_status = type { i16, ptr }

@.str.82 = private unnamed_addr constant [8 x i8] c"Unknown\00", align 1
@dcm_status_table = internal global ptr null, align 8
@.str.346 = private unnamed_addr constant [26 x i8] c"Refused: Out of Resources\00", align 1
@.str.347 = private unnamed_addr constant [41 x i8] c"Error: Data Set does not match SOP Class\00", align 1
@.str.348 = private unnamed_addr constant [43 x i8] c"Error: Cannot understand/Unable to Process\00", align 1

; Function Attrs: null_pointer_is_valid sspstrong uwtable
define internal ptr @dcm_rsp2str(i16 noundef zeroext %0) #0 {
  %2 = alloca i16, align 2
  %3 = alloca ptr, align 8
  %4 = alloca ptr, align 8
  store i16 %0, ptr %2, align 2
  call void @llvm.lifetime.start.p0(i64 8, ptr %3) #14
  store ptr null, ptr %3, align 8
  call void @llvm.lifetime.start.p0(i64 8, ptr %4) #14
  %5 = load ptr, ptr @dcm_status_table, align 8
  %6 = load i16, ptr %2, align 2
  %7 = zext i16 %6 to i32
  %8 = zext i32 %7 to i64
  %9 = inttoptr i64 %8 to ptr
  %10 = call ptr @wmem_map_lookup(ptr noundef %5, ptr noundef %9)
  store ptr %10, ptr %3, align 8
  %11 = load ptr, ptr %3, align 8
  %12 = icmp ne ptr %11, null
  br i1 %12, label %13, label %17

13:                                               ; preds = %1
  %14 = load ptr, ptr %3, align 8
  %15 = getelementptr inbounds nuw %struct.dcm_status, ptr %14, i32 0, i32 1
  %16 = load ptr, ptr %15, align 8
  store ptr %16, ptr %4, align 8
  br label %39

17:                                               ; preds = %1
  %18 = load i16, ptr %2, align 2
  %19 = zext i16 %18 to i32
  %20 = and i32 %19, 65280
  %21 = icmp eq i32 %20, 42752
  br i1 %21, label %22, label %23

22:                                               ; preds = %17
  store ptr @.str.346, ptr %4, align 8
  br label %38

23:                                               ; preds = %17
  %24 = load i16, ptr %2, align 2
  %25 = zext i16 %24 to i32
  %26 = and i32 %25, 65280
  %27 = icmp eq i32 %26, 43264
  br i1 %27, label %28, label %29

28:                                               ; preds = %23
  store ptr @.str.347, ptr %4, align 8
  br label %37

29:                                               ; preds = %23
  %30 = load i16, ptr %2, align 2
  %31 = zext i16 %30 to i32
  %32 = and i32 %31, 61440
  %33 = icmp eq i32 %32, 49152
  br i1 %33, label %34, label %35

34:                                               ; preds = %29
  store ptr @.str.348, ptr %4, align 8
  br label %36

35:                                               ; preds = %29
  store ptr @.str.82, ptr %4, align 8
  br label %36

36:                                               ; preds = %35, %34
  br label %37

37:                                               ; preds = %36, %28
  br label %38

38:                                               ; preds = %37, %22
  br label %39

39:                                               ; preds = %38, %13
  %40 = load ptr, ptr %4, align 8
  call void @llvm.lifetime.end.p0(i64 8, ptr %4) #14
  call void @llvm.lifetime.end.p0(i64 8, ptr %3) #14
  ret ptr %40
}