; Function Attrs: null_pointer_is_valid sspstrong uwtable
define internal fastcc ptr @dcm_rsp2str(i16 noundef zeroext %0) unnamed_addr #0 {
  %2 = load ptr, ptr @dcm_status_table, align 8
  %3 = zext i16 %0 to i64
  %4 = inttoptr i64 %3 to ptr
  %5 = tail call ptr @wmem_map_lookup(ptr noundef %2, ptr noundef %4)
  %.not = icmp eq ptr %5, null
  br i1 %.not, label %9, label %6

6:                                                ; preds = %1
  %7 = getelementptr inbounds nuw i8, ptr %5, i64 8
  %8 = load ptr, ptr %7, align 8
  br label %14

9:                                                ; preds = %1
  %trunc = and i16 %0, -256
  switch i16 %trunc, label %11 [
    i16 -22784, label %14
    i16 -22272, label %10
  ]

10:                                               ; preds = %9
  br label %14

11:                                               ; preds = %9
  %12 = and i16 %0, -4096
  %13 = icmp eq i16 %12, -16384
  %.str.348..str.82 = select i1 %13, ptr @.str.348, ptr @.str.82
  br label %14

14:                                               ; preds = %11, %9, %10, %6
  %.0 = phi ptr [ %8, %6 ], [ @.str.347, %10 ], [ @.str.346, %9 ], [ %.str.348..str.82, %11 ]
  ret ptr %.0
}